                                      1 ;--------------------------------------------------------
                                      2 ; File Created by SDCC : free open source ANSI-C Compiler
                                      3 ; Version 4.0.0 #11528 (Linux)
                                      4 ;--------------------------------------------------------
                                      5 	.module main
                                      6 	.optsdcc -mmcs51 --model-small
                                      7 	
                                      8 ;--------------------------------------------------------
                                      9 ; Public variables in this module
                                     10 ;--------------------------------------------------------
                                     11 	.globl _main
                                     12 	.globl _TF2
                                     13 	.globl _EXF2
                                     14 	.globl _RCLK
                                     15 	.globl _TCLK
                                     16 	.globl _EXEN2
                                     17 	.globl _TR2
                                     18 	.globl _C_T2
                                     19 	.globl _CP_RL2
                                     20 	.globl _T2CON_7
                                     21 	.globl _T2CON_6
                                     22 	.globl _T2CON_5
                                     23 	.globl _T2CON_4
                                     24 	.globl _T2CON_3
                                     25 	.globl _T2CON_2
                                     26 	.globl _T2CON_1
                                     27 	.globl _T2CON_0
                                     28 	.globl _PT2
                                     29 	.globl _ET2
                                     30 	.globl _CY
                                     31 	.globl _AC
                                     32 	.globl _F0
                                     33 	.globl _RS1
                                     34 	.globl _RS0
                                     35 	.globl _OV
                                     36 	.globl _F1
                                     37 	.globl _P
                                     38 	.globl _PS
                                     39 	.globl _PT1
                                     40 	.globl _PX1
                                     41 	.globl _PT0
                                     42 	.globl _PX0
                                     43 	.globl _RD
                                     44 	.globl _WR
                                     45 	.globl _T1
                                     46 	.globl _T0
                                     47 	.globl _INT1
                                     48 	.globl _INT0
                                     49 	.globl _TXD
                                     50 	.globl _RXD
                                     51 	.globl _P3_7
                                     52 	.globl _P3_6
                                     53 	.globl _P3_5
                                     54 	.globl _P3_4
                                     55 	.globl _P3_3
                                     56 	.globl _P3_2
                                     57 	.globl _P3_1
                                     58 	.globl _P3_0
                                     59 	.globl _EA
                                     60 	.globl _ES
                                     61 	.globl _ET1
                                     62 	.globl _EX1
                                     63 	.globl _ET0
                                     64 	.globl _EX0
                                     65 	.globl _P2_7
                                     66 	.globl _P2_6
                                     67 	.globl _P2_5
                                     68 	.globl _P2_4
                                     69 	.globl _P2_3
                                     70 	.globl _P2_2
                                     71 	.globl _P2_1
                                     72 	.globl _P2_0
                                     73 	.globl _SM0
                                     74 	.globl _SM1
                                     75 	.globl _SM2
                                     76 	.globl _REN
                                     77 	.globl _TB8
                                     78 	.globl _RB8
                                     79 	.globl _TI
                                     80 	.globl _RI
                                     81 	.globl _P1_7
                                     82 	.globl _P1_6
                                     83 	.globl _P1_5
                                     84 	.globl _P1_4
                                     85 	.globl _P1_3
                                     86 	.globl _P1_2
                                     87 	.globl _P1_1
                                     88 	.globl _P1_0
                                     89 	.globl _TF1
                                     90 	.globl _TR1
                                     91 	.globl _TF0
                                     92 	.globl _TR0
                                     93 	.globl _IE1
                                     94 	.globl _IT1
                                     95 	.globl _IE0
                                     96 	.globl _IT0
                                     97 	.globl _P0_7
                                     98 	.globl _P0_6
                                     99 	.globl _P0_5
                                    100 	.globl _P0_4
                                    101 	.globl _P0_3
                                    102 	.globl _P0_2
                                    103 	.globl _P0_1
                                    104 	.globl _P0_0
                                    105 	.globl _TH2
                                    106 	.globl _TL2
                                    107 	.globl _RCAP2H
                                    108 	.globl _RCAP2L
                                    109 	.globl _T2CON
                                    110 	.globl _B
                                    111 	.globl _ACC
                                    112 	.globl _PSW
                                    113 	.globl _IP
                                    114 	.globl _P3
                                    115 	.globl _IE
                                    116 	.globl _P2
                                    117 	.globl _SBUF
                                    118 	.globl _SCON
                                    119 	.globl _P1
                                    120 	.globl _TH1
                                    121 	.globl _TH0
                                    122 	.globl _TL1
                                    123 	.globl _TL0
                                    124 	.globl _TMOD
                                    125 	.globl _TCON
                                    126 	.globl _PCON
                                    127 	.globl _DPH
                                    128 	.globl _DPL
                                    129 	.globl _SP
                                    130 	.globl _P0
                                    131 ;--------------------------------------------------------
                                    132 ; special function registers
                                    133 ;--------------------------------------------------------
                                    134 	.area RSEG    (ABS,DATA)
      000000                        135 	.org 0x0000
                           000080   136 _P0	=	0x0080
                           000081   137 _SP	=	0x0081
                           000082   138 _DPL	=	0x0082
                           000083   139 _DPH	=	0x0083
                           000087   140 _PCON	=	0x0087
                           000088   141 _TCON	=	0x0088
                           000089   142 _TMOD	=	0x0089
                           00008A   143 _TL0	=	0x008a
                           00008B   144 _TL1	=	0x008b
                           00008C   145 _TH0	=	0x008c
                           00008D   146 _TH1	=	0x008d
                           000090   147 _P1	=	0x0090
                           000098   148 _SCON	=	0x0098
                           000099   149 _SBUF	=	0x0099
                           0000A0   150 _P2	=	0x00a0
                           0000A8   151 _IE	=	0x00a8
                           0000B0   152 _P3	=	0x00b0
                           0000B8   153 _IP	=	0x00b8
                           0000D0   154 _PSW	=	0x00d0
                           0000E0   155 _ACC	=	0x00e0
                           0000F0   156 _B	=	0x00f0
                           0000C8   157 _T2CON	=	0x00c8
                           0000CA   158 _RCAP2L	=	0x00ca
                           0000CB   159 _RCAP2H	=	0x00cb
                           0000CC   160 _TL2	=	0x00cc
                           0000CD   161 _TH2	=	0x00cd
                                    162 ;--------------------------------------------------------
                                    163 ; special function bits
                                    164 ;--------------------------------------------------------
                                    165 	.area RSEG    (ABS,DATA)
      000000                        166 	.org 0x0000
                           000080   167 _P0_0	=	0x0080
                           000081   168 _P0_1	=	0x0081
                           000082   169 _P0_2	=	0x0082
                           000083   170 _P0_3	=	0x0083
                           000084   171 _P0_4	=	0x0084
                           000085   172 _P0_5	=	0x0085
                           000086   173 _P0_6	=	0x0086
                           000087   174 _P0_7	=	0x0087
                           000088   175 _IT0	=	0x0088
                           000089   176 _IE0	=	0x0089
                           00008A   177 _IT1	=	0x008a
                           00008B   178 _IE1	=	0x008b
                           00008C   179 _TR0	=	0x008c
                           00008D   180 _TF0	=	0x008d
                           00008E   181 _TR1	=	0x008e
                           00008F   182 _TF1	=	0x008f
                           000090   183 _P1_0	=	0x0090
                           000091   184 _P1_1	=	0x0091
                           000092   185 _P1_2	=	0x0092
                           000093   186 _P1_3	=	0x0093
                           000094   187 _P1_4	=	0x0094
                           000095   188 _P1_5	=	0x0095
                           000096   189 _P1_6	=	0x0096
                           000097   190 _P1_7	=	0x0097
                           000098   191 _RI	=	0x0098
                           000099   192 _TI	=	0x0099
                           00009A   193 _RB8	=	0x009a
                           00009B   194 _TB8	=	0x009b
                           00009C   195 _REN	=	0x009c
                           00009D   196 _SM2	=	0x009d
                           00009E   197 _SM1	=	0x009e
                           00009F   198 _SM0	=	0x009f
                           0000A0   199 _P2_0	=	0x00a0
                           0000A1   200 _P2_1	=	0x00a1
                           0000A2   201 _P2_2	=	0x00a2
                           0000A3   202 _P2_3	=	0x00a3
                           0000A4   203 _P2_4	=	0x00a4
                           0000A5   204 _P2_5	=	0x00a5
                           0000A6   205 _P2_6	=	0x00a6
                           0000A7   206 _P2_7	=	0x00a7
                           0000A8   207 _EX0	=	0x00a8
                           0000A9   208 _ET0	=	0x00a9
                           0000AA   209 _EX1	=	0x00aa
                           0000AB   210 _ET1	=	0x00ab
                           0000AC   211 _ES	=	0x00ac
                           0000AF   212 _EA	=	0x00af
                           0000B0   213 _P3_0	=	0x00b0
                           0000B1   214 _P3_1	=	0x00b1
                           0000B2   215 _P3_2	=	0x00b2
                           0000B3   216 _P3_3	=	0x00b3
                           0000B4   217 _P3_4	=	0x00b4
                           0000B5   218 _P3_5	=	0x00b5
                           0000B6   219 _P3_6	=	0x00b6
                           0000B7   220 _P3_7	=	0x00b7
                           0000B0   221 _RXD	=	0x00b0
                           0000B1   222 _TXD	=	0x00b1
                           0000B2   223 _INT0	=	0x00b2
                           0000B3   224 _INT1	=	0x00b3
                           0000B4   225 _T0	=	0x00b4
                           0000B5   226 _T1	=	0x00b5
                           0000B6   227 _WR	=	0x00b6
                           0000B7   228 _RD	=	0x00b7
                           0000B8   229 _PX0	=	0x00b8
                           0000B9   230 _PT0	=	0x00b9
                           0000BA   231 _PX1	=	0x00ba
                           0000BB   232 _PT1	=	0x00bb
                           0000BC   233 _PS	=	0x00bc
                           0000D0   234 _P	=	0x00d0
                           0000D1   235 _F1	=	0x00d1
                           0000D2   236 _OV	=	0x00d2
                           0000D3   237 _RS0	=	0x00d3
                           0000D4   238 _RS1	=	0x00d4
                           0000D5   239 _F0	=	0x00d5
                           0000D6   240 _AC	=	0x00d6
                           0000D7   241 _CY	=	0x00d7
                           0000AD   242 _ET2	=	0x00ad
                           0000BD   243 _PT2	=	0x00bd
                           0000C8   244 _T2CON_0	=	0x00c8
                           0000C9   245 _T2CON_1	=	0x00c9
                           0000CA   246 _T2CON_2	=	0x00ca
                           0000CB   247 _T2CON_3	=	0x00cb
                           0000CC   248 _T2CON_4	=	0x00cc
                           0000CD   249 _T2CON_5	=	0x00cd
                           0000CE   250 _T2CON_6	=	0x00ce
                           0000CF   251 _T2CON_7	=	0x00cf
                           0000C8   252 _CP_RL2	=	0x00c8
                           0000C9   253 _C_T2	=	0x00c9
                           0000CA   254 _TR2	=	0x00ca
                           0000CB   255 _EXEN2	=	0x00cb
                           0000CC   256 _TCLK	=	0x00cc
                           0000CD   257 _RCLK	=	0x00cd
                           0000CE   258 _EXF2	=	0x00ce
                           0000CF   259 _TF2	=	0x00cf
                                    260 ;--------------------------------------------------------
                                    261 ; overlayable register banks
                                    262 ;--------------------------------------------------------
                                    263 	.area REG_BANK_0	(REL,OVR,DATA)
      000000                        264 	.ds 8
                                    265 ;--------------------------------------------------------
                                    266 ; internal ram data
                                    267 ;--------------------------------------------------------
                                    268 	.area DSEG    (DATA)
                                    269 ;--------------------------------------------------------
                                    270 ; overlayable items in internal ram 
                                    271 ;--------------------------------------------------------
                                    272 	.area	OSEG    (OVR,DATA)
      000008                        273 _main_k_65536_1:
      000008                        274 	.ds 2
                                    275 ;--------------------------------------------------------
                                    276 ; Stack segment in internal ram 
                                    277 ;--------------------------------------------------------
                                    278 	.area	SSEG
      00000A                        279 __start__stack:
      00000A                        280 	.ds	1
                                    281 
                                    282 ;--------------------------------------------------------
                                    283 ; indirectly addressable internal ram data
                                    284 ;--------------------------------------------------------
                                    285 	.area ISEG    (DATA)
                                    286 ;--------------------------------------------------------
                                    287 ; absolute internal ram data
                                    288 ;--------------------------------------------------------
                                    289 	.area IABS    (ABS,DATA)
                                    290 	.area IABS    (ABS,DATA)
                                    291 ;--------------------------------------------------------
                                    292 ; bit data
                                    293 ;--------------------------------------------------------
                                    294 	.area BSEG    (BIT)
                                    295 ;--------------------------------------------------------
                                    296 ; paged external ram data
                                    297 ;--------------------------------------------------------
                                    298 	.area PSEG    (PAG,XDATA)
                                    299 ;--------------------------------------------------------
                                    300 ; external ram data
                                    301 ;--------------------------------------------------------
                                    302 	.area XSEG    (XDATA)
                                    303 ;--------------------------------------------------------
                                    304 ; absolute external ram data
                                    305 ;--------------------------------------------------------
                                    306 	.area XABS    (ABS,XDATA)
                                    307 ;--------------------------------------------------------
                                    308 ; external initialized ram data
                                    309 ;--------------------------------------------------------
                                    310 	.area XISEG   (XDATA)
                                    311 	.area HOME    (CODE)
                                    312 	.area GSINIT0 (CODE)
                                    313 	.area GSINIT1 (CODE)
                                    314 	.area GSINIT2 (CODE)
                                    315 	.area GSINIT3 (CODE)
                                    316 	.area GSINIT4 (CODE)
                                    317 	.area GSINIT5 (CODE)
                                    318 	.area GSINIT  (CODE)
                                    319 	.area GSFINAL (CODE)
                                    320 	.area CSEG    (CODE)
                                    321 ;--------------------------------------------------------
                                    322 ; interrupt vector 
                                    323 ;--------------------------------------------------------
                                    324 	.area HOME    (CODE)
      000000                        325 __interrupt_vect:
      000000 02 00 06         [24]  326 	ljmp	__sdcc_gsinit_startup
                                    327 ;--------------------------------------------------------
                                    328 ; global & static initialisations
                                    329 ;--------------------------------------------------------
                                    330 	.area HOME    (CODE)
                                    331 	.area GSINIT  (CODE)
                                    332 	.area GSFINAL (CODE)
                                    333 	.area GSINIT  (CODE)
                                    334 	.globl __sdcc_gsinit_startup
                                    335 	.globl __sdcc_program_startup
                                    336 	.globl __start__stack
                                    337 	.globl __mcs51_genXINIT
                                    338 	.globl __mcs51_genXRAMCLEAR
                                    339 	.globl __mcs51_genRAMCLEAR
                                    340 	.area GSFINAL (CODE)
      00005F 02 00 03         [24]  341 	ljmp	__sdcc_program_startup
                                    342 ;--------------------------------------------------------
                                    343 ; Home
                                    344 ;--------------------------------------------------------
                                    345 	.area HOME    (CODE)
                                    346 	.area HOME    (CODE)
      000003                        347 __sdcc_program_startup:
      000003 02 00 62         [24]  348 	ljmp	_main
                                    349 ;	return from main will return to caller
                                    350 ;--------------------------------------------------------
                                    351 ; code
                                    352 ;--------------------------------------------------------
                                    353 	.area CSEG    (CODE)
                                    354 ;------------------------------------------------------------
                                    355 ;Allocation info for local variables in function 'main'
                                    356 ;------------------------------------------------------------
                                    357 ;i                         Allocated to registers r6 r7 
                                    358 ;k                         Allocated with name '_main_k_65536_1'
                                    359 ;------------------------------------------------------------
                                    360 ;	main.c:3: void main()
                                    361 ;	-----------------------------------------
                                    362 ;	 function main
                                    363 ;	-----------------------------------------
      000062                        364 _main:
                           000007   365 	ar7 = 0x07
                           000006   366 	ar6 = 0x06
                           000005   367 	ar5 = 0x05
                           000004   368 	ar4 = 0x04
                           000003   369 	ar3 = 0x03
                           000002   370 	ar2 = 0x02
                           000001   371 	ar1 = 0x01
                           000000   372 	ar0 = 0x00
                                    373 ;	main.c:6: while(1)
      000062                        374 00122$:
                                    375 ;	main.c:11: P1=0x0f;		//00001111
      000062 75 90 0F         [24]  376 	mov	_P1,#0x0f
                                    377 ;	main.c:12: if(P1!=0x0f);
      000065 E5 90            [12]  378 	mov	a,_P1
                                    379 ;	main.c:14: for(i=0;i<1000;i++);
      000067 7E E8            [12]  380 	mov	r6,#0xe8
      000069 7F 03            [12]  381 	mov	r7,#0x03
      00006B                        382 00126$:
      00006B EE               [12]  383 	mov	a,r6
      00006C 24 FF            [12]  384 	add	a,#0xff
      00006E FC               [12]  385 	mov	r4,a
      00006F EF               [12]  386 	mov	a,r7
      000070 34 FF            [12]  387 	addc	a,#0xff
      000072 FD               [12]  388 	mov	r5,a
      000073 8C 06            [24]  389 	mov	ar6,r4
      000075 8D 07            [24]  390 	mov	ar7,r5
      000077 EC               [12]  391 	mov	a,r4
      000078 4D               [12]  392 	orl	a,r5
      000079 70 F0            [24]  393 	jnz	00126$
                                    394 ;	main.c:15: if(P1!=0x0f);		//00001111 检测列
      00007B E5 90            [12]  395 	mov	a,_P1
                                    396 ;	main.c:17: switch(P1)
      00007D AF 90            [24]  397 	mov	r7,_P1
      00007F BF 07 02         [24]  398 	cjne	r7,#0x07,00178$
      000082 80 0F            [24]  399 	sjmp	00102$
      000084                        400 00178$:
      000084 BF 0B 02         [24]  401 	cjne	r7,#0x0b,00179$
      000087 80 11            [24]  402 	sjmp	00103$
      000089                        403 00179$:
      000089 BF 0D 02         [24]  404 	cjne	r7,#0x0d,00180$
      00008C 80 14            [24]  405 	sjmp	00104$
      00008E                        406 00180$:
                                    407 ;	main.c:19: case(0x07):k=0;break;	//00000111
      00008E BF 0E 1F         [24]  408 	cjne	r7,#0x0e,00106$
      000091 80 17            [24]  409 	sjmp	00105$
      000093                        410 00102$:
      000093 E4               [12]  411 	clr	a
      000094 F5 08            [12]  412 	mov	_main_k_65536_1,a
      000096 F5 09            [12]  413 	mov	(_main_k_65536_1 + 1),a
                                    414 ;	main.c:20: case(0x0B):k=1;break;	//00001011
      000098 80 16            [24]  415 	sjmp	00106$
      00009A                        416 00103$:
      00009A 75 08 01         [24]  417 	mov	_main_k_65536_1,#0x01
      00009D 75 09 00         [24]  418 	mov	(_main_k_65536_1 + 1),#0x00
                                    419 ;	main.c:21: case(0x0D):k=2;break;	//00001101
      0000A0 80 0E            [24]  420 	sjmp	00106$
      0000A2                        421 00104$:
      0000A2 75 08 02         [24]  422 	mov	_main_k_65536_1,#0x02
      0000A5 75 09 00         [24]  423 	mov	(_main_k_65536_1 + 1),#0x00
                                    424 ;	main.c:22: case(0x0E):k=3;break;	//00001110
      0000A8 80 06            [24]  425 	sjmp	00106$
      0000AA                        426 00105$:
      0000AA 75 08 03         [24]  427 	mov	_main_k_65536_1,#0x03
      0000AD 75 09 00         [24]  428 	mov	(_main_k_65536_1 + 1),#0x00
                                    429 ;	main.c:24: }
      0000B0                        430 00106$:
                                    431 ;	main.c:25: P1=0xf0;		//11110000 检测行
      0000B0 75 90 F0         [24]  432 	mov	_P1,#0xf0
                                    433 ;	main.c:26: switch(P1)
      0000B3 AF 90            [24]  434 	mov	r7,_P1
      0000B5 BF 70 02         [24]  435 	cjne	r7,#0x70,00182$
      0000B8 80 34            [24]  436 	sjmp	00111$
      0000BA                        437 00182$:
      0000BA BF B0 02         [24]  438 	cjne	r7,#0xb0,00183$
      0000BD 80 0A            [24]  439 	sjmp	00108$
      0000BF                        440 00183$:
      0000BF BF D0 02         [24]  441 	cjne	r7,#0xd0,00184$
      0000C2 80 12            [24]  442 	sjmp	00109$
      0000C4                        443 00184$:
                                    444 ;	main.c:29: case(0xB0):k+=10;break;	//10110000
      0000C4 BF E0 27         [24]  445 	cjne	r7,#0xe0,00111$
      0000C7 80 1A            [24]  446 	sjmp	00110$
      0000C9                        447 00108$:
      0000C9 74 0A            [12]  448 	mov	a,#0x0a
      0000CB 25 08            [12]  449 	add	a,_main_k_65536_1
      0000CD F5 08            [12]  450 	mov	_main_k_65536_1,a
      0000CF E4               [12]  451 	clr	a
      0000D0 35 09            [12]  452 	addc	a,(_main_k_65536_1 + 1)
      0000D2 F5 09            [12]  453 	mov	(_main_k_65536_1 + 1),a
                                    454 ;	main.c:30: case(0xD0):k+=20;break;	//11010000
      0000D4 80 18            [24]  455 	sjmp	00111$
      0000D6                        456 00109$:
      0000D6 74 14            [12]  457 	mov	a,#0x14
      0000D8 25 08            [12]  458 	add	a,_main_k_65536_1
      0000DA F5 08            [12]  459 	mov	_main_k_65536_1,a
      0000DC E4               [12]  460 	clr	a
      0000DD 35 09            [12]  461 	addc	a,(_main_k_65536_1 + 1)
      0000DF F5 09            [12]  462 	mov	(_main_k_65536_1 + 1),a
                                    463 ;	main.c:31: case(0xE0):k+=30;break;	//11100000
      0000E1 80 0B            [24]  464 	sjmp	00111$
      0000E3                        465 00110$:
      0000E3 74 1E            [12]  466 	mov	a,#0x1e
      0000E5 25 08            [12]  467 	add	a,_main_k_65536_1
      0000E7 F5 08            [12]  468 	mov	_main_k_65536_1,a
      0000E9 E4               [12]  469 	clr	a
      0000EA 35 09            [12]  470 	addc	a,(_main_k_65536_1 + 1)
      0000EC F5 09            [12]  471 	mov	(_main_k_65536_1 + 1),a
                                    472 ;	main.c:32: }
      0000EE                        473 00111$:
                                    474 ;	main.c:35: P2=0xff;
      0000EE 75 A0 FF         [24]  475 	mov	_P2,#0xff
                                    476 ;	main.c:36: switch(k)
      0000F1 C3               [12]  477 	clr	c
      0000F2 74 0D            [12]  478 	mov	a,#0x0d
      0000F4 95 08            [12]  479 	subb	a,_main_k_65536_1
      0000F6 E4               [12]  480 	clr	a
      0000F7 95 09            [12]  481 	subb	a,(_main_k_65536_1 + 1)
      0000F9 50 03            [24]  482 	jnc	00186$
      0000FB 02 00 62         [24]  483 	ljmp	00122$
      0000FE                        484 00186$:
      0000FE E5 08            [12]  485 	mov	a,_main_k_65536_1
      000100 24 0B            [12]  486 	add	a,#(00187$-3-.)
      000102 83               [24]  487 	movc	a,@a+pc
      000103 F5 82            [12]  488 	mov	dpl,a
      000105 E5 08            [12]  489 	mov	a,_main_k_65536_1
      000107 24 12            [12]  490 	add	a,#(00188$-3-.)
      000109 83               [24]  491 	movc	a,@a+pc
      00010A F5 83            [12]  492 	mov	dph,a
      00010C E4               [12]  493 	clr	a
      00010D 73               [24]  494 	jmp	@a+dptr
      00010E                        495 00187$:
      00010E 2A                     496 	.db	00112$
      00010F 2F                     497 	.db	00113$
      000110 34                     498 	.db	00114$
      000111 39                     499 	.db	00115$
      000112 62                     500 	.db	00122$
      000113 62                     501 	.db	00122$
      000114 62                     502 	.db	00122$
      000115 62                     503 	.db	00122$
      000116 62                     504 	.db	00122$
      000117 62                     505 	.db	00122$
      000118 3E                     506 	.db	00116$
      000119 43                     507 	.db	00117$
      00011A 48                     508 	.db	00118$
      00011B 4D                     509 	.db	00119$
      00011C                        510 00188$:
      00011C 01                     511 	.db	00112$>>8
      00011D 01                     512 	.db	00113$>>8
      00011E 01                     513 	.db	00114$>>8
      00011F 01                     514 	.db	00115$>>8
      000120 00                     515 	.db	00122$>>8
      000121 00                     516 	.db	00122$>>8
      000122 00                     517 	.db	00122$>>8
      000123 00                     518 	.db	00122$>>8
      000124 00                     519 	.db	00122$>>8
      000125 00                     520 	.db	00122$>>8
      000126 01                     521 	.db	00116$>>8
      000127 01                     522 	.db	00117$>>8
      000128 01                     523 	.db	00118$>>8
      000129 01                     524 	.db	00119$>>8
                                    525 ;	main.c:38: case(0):P2_0=!P2_0;break;
      00012A                        526 00112$:
      00012A B2 A0            [12]  527 	cpl	_P2_0
      00012C 02 00 62         [24]  528 	ljmp	00122$
                                    529 ;	main.c:39: case(1):P2_1=!P2_1;break;
      00012F                        530 00113$:
      00012F B2 A1            [12]  531 	cpl	_P2_1
      000131 02 00 62         [24]  532 	ljmp	00122$
                                    533 ;	main.c:40: case(2):P2_2=!P2_2;break;
      000134                        534 00114$:
      000134 B2 A2            [12]  535 	cpl	_P2_2
      000136 02 00 62         [24]  536 	ljmp	00122$
                                    537 ;	main.c:41: case(3):P2_3=!P2_3;break;
      000139                        538 00115$:
      000139 B2 A3            [12]  539 	cpl	_P2_3
      00013B 02 00 62         [24]  540 	ljmp	00122$
                                    541 ;	main.c:42: case(10):P2_4=!P2_4;break;
      00013E                        542 00116$:
      00013E B2 A4            [12]  543 	cpl	_P2_4
      000140 02 00 62         [24]  544 	ljmp	00122$
                                    545 ;	main.c:43: case(11):P2_5=!P2_5;break;
      000143                        546 00117$:
      000143 B2 A5            [12]  547 	cpl	_P2_5
      000145 02 00 62         [24]  548 	ljmp	00122$
                                    549 ;	main.c:44: case(12):P2_6=!P2_6;break;
      000148                        550 00118$:
      000148 B2 A6            [12]  551 	cpl	_P2_6
      00014A 02 00 62         [24]  552 	ljmp	00122$
                                    553 ;	main.c:45: case(13):P2_7=!P2_7;break;
      00014D                        554 00119$:
      00014D B2 A7            [12]  555 	cpl	_P2_7
                                    556 ;	main.c:54: }
                                    557 ;	main.c:56: }
      00014F 02 00 62         [24]  558 	ljmp	00122$
                                    559 	.area CSEG    (CODE)
                                    560 	.area CONST   (CODE)
                                    561 	.area XINIT   (CODE)
                                    562 	.area CABS    (ABS,CODE)
